; Function Attrs: mustprogress uwtable
define hidden void @_ZN2cv2ml10SVMSGDImpl24makeExtendedTrainSamplesERKNS_3MatERS2_S5_Rf(ptr noundef nonnull align 8 dereferenceable(96) %0, ptr noundef nonnull align 8 dereferenceable(96) %1, ptr noundef nonnull align 8 dereferenceable(96) %2, ptr noundef nonnull writeonly align 4 captures(none) dereferenceable(4) %3) local_unnamed_addr #3 align 2 personality ptr @__gxx_personality_v0 {
  %5 = alloca %"class.cv::Mat", align 8
  %6 = alloca %"class.cv::Mat", align 8
  %7 = alloca %"class.cv::MatExpr", align 8
  %8 = alloca %"class.cv::_InputArray", align 8
  %9 = alloca %"class.cv::_InputArray", align 8
  %10 = alloca %"class.cv::_OutputArray", align 8
  call void @llvm.lifetime.start.p0(i64 96, ptr nonnull %5) #21
  call void @_ZNK2cv3Mat5cloneEv(ptr dead_on_unwind nonnull writable sret(%"class.cv::Mat") align 8 %5, ptr noundef nonnull align 8 dereferenceable(96) %0)
  %11 = getelementptr inbounds nuw i8, ptr %5, i64 8
  %12 = load i32, ptr %11, align 8, !tbaa !56
  invoke void @_ZN2cv2ml10SVMSGDImpl16normalizeSamplesERNS_3MatES3_Rf(ptr noundef nonnull align 8 dereferenceable(96) %5, ptr noundef nonnull align 8 dereferenceable(96) %2, ptr noundef nonnull align 4 dereferenceable(4) %3)
          to label %13 unwind label %33

13:                                               ; preds = %4
  call void @llvm.lifetime.start.p0(i64 96, ptr nonnull %6) #21
  call void @llvm.lifetime.start.p0(i64 352, ptr nonnull %7) #21
  invoke void @_ZN2cv3Mat4onesEiii(ptr dead_on_unwind nonnull writable sret(%"class.cv::MatExpr") align 8 %7, i32 noundef %12, i32 noundef 1, i32 noundef 5)
          to label %14 unwind label %35

14:                                               ; preds = %13
  call void @_ZN2cv3MatC1Ev(ptr noundef nonnull align 8 dereferenceable(96) %6) #21
  %15 = load ptr, ptr %7, align 8, !tbaa !84, !noalias !90
  %16 = load ptr, ptr %15, align 8, !tbaa !40
  %17 = getelementptr inbounds nuw i8, ptr %16, i64 24
  %18 = load ptr, ptr %17, align 8
  invoke void %18(ptr noundef nonnull align 8 dereferenceable(8) %15, ptr noundef nonnull align 8 dereferenceable(352) %7, ptr noundef nonnull align 8 dereferenceable(96) %6, i32 noundef -1)
          to label %20 unwind label %.body

.body:                                            ; preds = %14
  %19 = landingpad { ptr, i32 }
          cleanup
  call void @_ZN2cv3MatD1Ev(ptr noundef nonnull align 8 dereferenceable(96) %6) #21
  call void @_ZN2cv7MatExprD2Ev(ptr noundef nonnull align 8 dereferenceable(352) %7) #21
  br label %37

20:                                               ; preds = %14
  %21 = getelementptr inbounds nuw i8, ptr %7, i64 208
  call void @_ZN2cv3MatD1Ev(ptr noundef nonnull align 8 dereferenceable(96) %21) #21
  %22 = getelementptr inbounds nuw i8, ptr %7, i64 112
  call void @_ZN2cv3MatD1Ev(ptr noundef nonnull align 8 dereferenceable(96) %22) #21
  %23 = getelementptr inbounds nuw i8, ptr %7, i64 16
  call void @_ZN2cv3MatD1Ev(ptr noundef nonnull align 8 dereferenceable(96) %23) #21
  call void @llvm.lifetime.end.p0(i64 352, ptr nonnull %7) #21
  call void @llvm.lifetime.start.p0(i64 24, ptr nonnull %8) #21
  %24 = getelementptr inbounds nuw i8, ptr %8, i64 16
  store i32 0, ptr %24, align 8, !tbaa !64
  %25 = getelementptr inbounds nuw i8, ptr %8, i64 20
  store i32 0, ptr %25, align 4, !tbaa !66
  store i32 16842752, ptr %8, align 8, !tbaa !67
  %26 = getelementptr inbounds nuw i8, ptr %8, i64 8
  store ptr %5, ptr %26, align 8, !tbaa !69
  call void @llvm.lifetime.start.p0(i64 24, ptr nonnull %9) #21
  %27 = getelementptr inbounds nuw i8, ptr %9, i64 16
  store i32 0, ptr %27, align 8, !tbaa !64
  %28 = getelementptr inbounds nuw i8, ptr %9, i64 20
  store i32 0, ptr %28, align 4, !tbaa !66
  store i32 16842752, ptr %9, align 8, !tbaa !67
  %29 = getelementptr inbounds nuw i8, ptr %9, i64 8
  store ptr %6, ptr %29, align 8, !tbaa !69
  call void @llvm.lifetime.start.p0(i64 24, ptr nonnull %10) #21
  %30 = getelementptr inbounds nuw i8, ptr %10, i64 8
  %31 = getelementptr inbounds nuw i8, ptr %10, i64 16
  store i64 0, ptr %31, align 8
  store i32 33619968, ptr %10, align 8, !tbaa !67
  store ptr %1, ptr %30, align 8, !tbaa !69
  invoke void @_ZN2cv7hconcatERKNS_11_InputArrayES2_RKNS_12_OutputArrayE(ptr noundef nonnull align 8 dereferenceable(24) %8, ptr noundef nonnull align 8 dereferenceable(24) %9, ptr noundef nonnull align 8 dereferenceable(24) %10)
          to label %32 unwind label %38

32:                                               ; preds = %20
  call void @llvm.lifetime.end.p0(i64 24, ptr nonnull %10) #21
  call void @llvm.lifetime.end.p0(i64 24, ptr nonnull %9) #21
  call void @llvm.lifetime.end.p0(i64 24, ptr nonnull %8) #21
  call void @_ZN2cv3MatD1Ev(ptr noundef nonnull align 8 dereferenceable(96) %6) #21
  call void @llvm.lifetime.end.p0(i64 96, ptr nonnull %6) #21
  call void @_ZN2cv3MatD1Ev(ptr noundef nonnull align 8 dereferenceable(96) %5) #21
  call void @llvm.lifetime.end.p0(i64 96, ptr nonnull %5) #21
  ret void

33:                                               ; preds = %4
  %34 = landingpad { ptr, i32 }
          cleanup
  br label %41

35:                                               ; preds = %13
  %36 = landingpad { ptr, i32 }
          cleanup
  br label %37

37:                                               ; preds = %.body, %35
  %.pn = phi { ptr, i32 } [ %19, %.body ], [ %36, %35 ]
  call void @llvm.lifetime.end.p0(i64 352, ptr nonnull %7) #21
  br label %40

38:                                               ; preds = %20
  %39 = landingpad { ptr, i32 }
          cleanup
  call void @llvm.lifetime.end.p0(i64 24, ptr nonnull %10) #21
  call void @llvm.lifetime.end.p0(i64 24, ptr nonnull %9) #21
  call void @llvm.lifetime.end.p0(i64 24, ptr nonnull %8) #21
  call void @_ZN2cv3MatD1Ev(ptr noundef nonnull align 8 dereferenceable(96) %6) #21
  br label %40

40:                                               ; preds = %38, %37
  %.pn13.pn.pn.pn = phi { ptr, i32 } [ %39, %38 ], [ %.pn, %37 ]
  call void @llvm.lifetime.end.p0(i64 96, ptr nonnull %6) #21
  br label %41

41:                                               ; preds = %40, %33
  %.pn13.pn.pn.pn.pn = phi { ptr, i32 } [ %.pn13.pn.pn.pn, %40 ], [ %34, %33 ]
  call void @_ZN2cv3MatD1Ev(ptr noundef nonnull align 8 dereferenceable(96) %5) #21
  call void @llvm.lifetime.end.p0(i64 96, ptr nonnull %5) #21
  resume { ptr, i32 } %.pn13.pn.pn.pn.pn
}